target datalayout = "e-m:e-p270:32:32-p271:32:32-p272:64:64-i64:64-i128:128-f80:128-n8:16:32:64-S128"
target triple = "x86_64-pc-linux-gnu"

%"struct.OpenImageIO::v3_1_0::TypeDesc" = type { i8, i8, i8, i8, i32 }
%"class.OpenImageIO::v3_1_0::TIFFOutput" = type <{ %"class.OpenImageIO::v3_1_0::ImageOutput", ptr, %"class.std::vector.12", %"class.OpenImageIO::v3_1_0::Timer", i32, i32, i32, i32, i32, i32, i32, i32, i32, i32, i8, i8, [6 x i8] }>
%"class.OpenImageIO::v3_1_0::ImageOutput" = type { ptr, %"class.OpenImageIO::v3_1_0::ImageSpec", %"class.std::unique_ptr" }
%"class.OpenImageIO::v3_1_0::ImageSpec" = type { i32, i32, i32, i32, i32, i32, i32, i32, i32, i32, i32, i32, i32, i32, i32, i32, %"struct.OpenImageIO::v3_1_0::TypeDesc", %"class.std::vector", %"class.std::vector.0", i32, i32, i8, %"class.OpenImageIO::v3_1_0::ParamValueList" }
%"class.std::vector" = type { %"struct.std::_Vector_base" }
%"struct.std::_Vector_base" = type { %"struct.std::_Vector_base<OpenImageIO::v3_1_0::TypeDesc, std::allocator<OpenImageIO::v3_1_0::TypeDesc>>::_Vector_impl" }
%"struct.std::_Vector_base<OpenImageIO::v3_1_0::TypeDesc, std::allocator<OpenImageIO::v3_1_0::TypeDesc>>::_Vector_impl" = type { %"struct.std::_Vector_base<OpenImageIO::v3_1_0::TypeDesc, std::allocator<OpenImageIO::v3_1_0::TypeDesc>>::_Vector_impl_data" }
%"struct.std::_Vector_base<OpenImageIO::v3_1_0::TypeDesc, std::allocator<OpenImageIO::v3_1_0::TypeDesc>>::_Vector_impl_data" = type { ptr, ptr, ptr }
%"class.std::vector.0" = type { %"struct.std::_Vector_base.1" }
%"struct.std::_Vector_base.1" = type { %"struct.std::_Vector_base<std::__cxx11::basic_string<char>, std::allocator<std::__cxx11::basic_string<char>>>::_Vector_impl" }
%"struct.std::_Vector_base<std::__cxx11::basic_string<char>, std::allocator<std::__cxx11::basic_string<char>>>::_Vector_impl" = type { %"struct.std::_Vector_base<std::__cxx11::basic_string<char>, std::allocator<std::__cxx11::basic_string<char>>>::_Vector_impl_data" }
%"struct.std::_Vector_base<std::__cxx11::basic_string<char>, std::allocator<std::__cxx11::basic_string<char>>>::_Vector_impl_data" = type { ptr, ptr, ptr }
%"class.OpenImageIO::v3_1_0::ParamValueList" = type { %"class.std::vector.5" }
%"class.std::vector.5" = type { %"struct.std::_Vector_base.6" }
%"struct.std::_Vector_base.6" = type { %"struct.std::_Vector_base<OpenImageIO::v3_1_0::ParamValue, std::allocator<OpenImageIO::v3_1_0::ParamValue>>::_Vector_impl" }
%"struct.std::_Vector_base<OpenImageIO::v3_1_0::ParamValue, std::allocator<OpenImageIO::v3_1_0::ParamValue>>::_Vector_impl" = type { %"struct.std::_Vector_base<OpenImageIO::v3_1_0::ParamValue, std::allocator<OpenImageIO::v3_1_0::ParamValue>>::_Vector_impl_data" }
%"struct.std::_Vector_base<OpenImageIO::v3_1_0::ParamValue, std::allocator<OpenImageIO::v3_1_0::ParamValue>>::_Vector_impl_data" = type { ptr, ptr, ptr }
%"class.std::unique_ptr" = type { %"struct.std::__uniq_ptr_data" }
%"struct.std::__uniq_ptr_data" = type { %"class.std::__uniq_ptr_impl" }
%"class.std::__uniq_ptr_impl" = type { %"class.std::tuple" }
%"class.std::tuple" = type { %"struct.std::_Tuple_impl" }
%"struct.std::_Tuple_impl" = type { %"struct.std::_Tuple_impl.10", %"struct.std::_Head_base.11" }
%"struct.std::_Tuple_impl.10" = type { %"struct.std::_Head_base" }
%"struct.std::_Head_base" = type { ptr }
%"struct.std::_Head_base.11" = type { ptr }
%"class.std::vector.12" = type { %"struct.std::_Vector_base.13" }
%"struct.std::_Vector_base.13" = type { %"struct.std::_Vector_base<unsigned char, std::allocator<unsigned char>>::_Vector_impl" }
%"struct.std::_Vector_base<unsigned char, std::allocator<unsigned char>>::_Vector_impl" = type { %"struct.std::_Vector_base<unsigned char, std::allocator<unsigned char>>::_Vector_impl_data" }
%"struct.std::_Vector_base<unsigned char, std::allocator<unsigned char>>::_Vector_impl_data" = type { ptr, ptr, ptr }
%"class.OpenImageIO::v3_1_0::Timer" = type { i8, i8, i64, i64, ptr }

; Function Attrs: mustprogress uwtable
define linkonce_odr hidden void @_ZN11OpenImageIO6v3_1_010TIFFOutput4initEv(ptr noundef nonnull align 8 dereferenceable(296) %0) #6 comdat align 2 {
  %2 = alloca ptr, align 8
  store ptr %0, ptr %2, align 8, !tbaa !26
  %3 = load ptr, ptr %2, align 8
  %4 = getelementptr inbounds nuw %"class.OpenImageIO::v3_1_0::TIFFOutput", ptr %3, i32 0, i32 1
  store ptr null, ptr %4, align 8, !tbaa !30
  %5 = getelementptr inbounds nuw %"class.OpenImageIO::v3_1_0::TIFFOutput", ptr %3, i32 0, i32 4
  store i32 0, ptr %5, align 8, !tbaa !79
  %6 = getelementptr inbounds nuw %"class.OpenImageIO::v3_1_0::TIFFOutput", ptr %3, i32 0, i32 7
  store i32 8, ptr %6, align 4, !tbaa !80
  %7 = getelementptr inbounds nuw %"class.OpenImageIO::v3_1_0::TIFFOutput", ptr %3, i32 0, i32 8
  store i32 1, ptr %7, align 8, !tbaa !81
  %8 = getelementptr inbounds nuw %"class.OpenImageIO::v3_1_0::TIFFOutput", ptr %3, i32 0, i32 9
  store i32 2, ptr %8, align 4, !tbaa !82
  %9 = getelementptr inbounds nuw %"class.OpenImageIO::v3_1_0::TIFFOutput", ptr %3, i32 0, i32 10
  store i32 32, ptr %9, align 8, !tbaa !83
  %10 = getelementptr inbounds nuw %"class.OpenImageIO::v3_1_0::TIFFOutput", ptr %3, i32 0, i32 11
  store i32 6, ptr %10, align 4, !tbaa !84
  %11 = getelementptr inbounds nuw %"class.OpenImageIO::v3_1_0::TIFFOutput", ptr %3, i32 0, i32 13
  store i32 0, ptr %11, align 4, !tbaa !85
  %12 = getelementptr inbounds nuw %"class.OpenImageIO::v3_1_0::TIFFOutput", ptr %3, i32 0, i32 14
  store i8 0, ptr %12, align 8, !tbaa !86
  %13 = getelementptr inbounds nuw %"class.OpenImageIO::v3_1_0::TIFFOutput", ptr %3, i32 0, i32 15
  store i8 0, ptr %13, align 1, !tbaa !87
  call void @_ZN11OpenImageIO6v3_1_011ImageOutput13ioproxy_clearEv(ptr noundef nonnull align 8 dereferenceable(184) %3)
  ret void
}

; Function Attrs: mustprogress uwtable
define linkonce_odr hidden void @_ZN11OpenImageIO6v3_1_010TIFFOutput8closetifEv(ptr noundef nonnull align 8 dereferenceable(296) %0) #6 comdat align 2 {
  %2 = alloca ptr, align 8
  store ptr %0, ptr %2, align 8, !tbaa !26
  %3 = load ptr, ptr %2, align 8
  %4 = getelementptr inbounds nuw %"class.OpenImageIO::v3_1_0::TIFFOutput", ptr %3, i32 0, i32 1
  %5 = load ptr, ptr %4, align 8, !tbaa !30
  %6 = icmp ne ptr %5, null
  br i1 %6, label %7, label %12

7:                                                ; preds = %1
  %8 = call noundef zeroext i1 @_ZN11OpenImageIO6v3_1_010TIFFOutput15write_exif_dataEv(ptr noundef nonnull align 8 dereferenceable(296) %3)
  %9 = getelementptr inbounds nuw %"class.OpenImageIO::v3_1_0::TIFFOutput", ptr %3, i32 0, i32 1
  %10 = load ptr, ptr %9, align 8, !tbaa !30
  call void @TIFFClose(ptr noundef %10)
  %11 = getelementptr inbounds nuw %"class.OpenImageIO::v3_1_0::TIFFOutput", ptr %3, i32 0, i32 1
  store ptr null, ptr %11, align 8, !tbaa !30
  br label %12

12:                                               ; preds = %7, %1
  ret void
}

; Function Attrs: mustprogress uwtable
define hidden noundef zeroext i1 @_ZN11OpenImageIO6v3_1_010TIFFOutput5closeEv(ptr noundef nonnull align 8 dereferenceable(296) %0) unnamed_addr #6 align 2 {
  %2 = alloca ptr, align 8
  store ptr %0, ptr %2, align 8, !tbaa !26
  %3 = load ptr, ptr %2, align 8
  call void @_ZN11OpenImageIO6v3_1_010TIFFOutput8closetifEv(ptr noundef nonnull align 8 dereferenceable(296) %3)
  call void @_ZN11OpenImageIO6v3_1_010TIFFOutput4initEv(ptr noundef nonnull align 8 dereferenceable(296) %3)
  ret i1 true
}