; Function Attrs: mustprogress uwtable
define hidden noundef zeroext i1 @_ZN11OpenImageIO6v3_1_010TIFFOutput5closeEv(ptr noundef nonnull align 8 dereferenceable(296) %0) unnamed_addr #5 align 2 {
  %2 = getelementptr inbounds nuw i8, ptr %0, i64 184
  %3 = load ptr, ptr %2, align 8, !tbaa !30
  %.not.i = icmp eq ptr %3, null
  br i1 %.not.i, label %_ZN11OpenImageIO6v3_1_010TIFFOutput8closetifEv.exit, label %4

4:                                                ; preds = %1
  %5 = tail call noundef zeroext i1 @_ZN11OpenImageIO6v3_1_010TIFFOutput15write_exif_dataEv(ptr noundef nonnull align 8 dereferenceable(296) %0)
  %6 = load ptr, ptr %2, align 8, !tbaa !30
  tail call void @TIFFClose(ptr noundef %6)
  br label %_ZN11OpenImageIO6v3_1_010TIFFOutput8closetifEv.exit

_ZN11OpenImageIO6v3_1_010TIFFOutput8closetifEv.exit: ; preds = %1, %4
  store ptr null, ptr %2, align 8, !tbaa !30
  %7 = getelementptr inbounds nuw i8, ptr %0, i64 248
  store i32 0, ptr %7, align 8, !tbaa !66
  %8 = getelementptr inbounds nuw i8, ptr %0, i64 260
  store i32 8, ptr %8, align 4, !tbaa !67
  %9 = getelementptr inbounds nuw i8, ptr %0, i64 264
  store i32 1, ptr %9, align 8, !tbaa !68
  %10 = getelementptr inbounds nuw i8, ptr %0, i64 268
  store i32 2, ptr %10, align 4, !tbaa !69
  %11 = getelementptr inbounds nuw i8, ptr %0, i64 272
  store i32 32, ptr %11, align 8, !tbaa !70
  %12 = getelementptr inbounds nuw i8, ptr %0, i64 276
  store i32 6, ptr %12, align 4, !tbaa !71
  %13 = getelementptr inbounds nuw i8, ptr %0, i64 284
  store i32 0, ptr %13, align 4, !tbaa !72
  %14 = getelementptr inbounds nuw i8, ptr %0, i64 288
  store i8 0, ptr %14, align 8, !tbaa !73
  %15 = getelementptr inbounds nuw i8, ptr %0, i64 289
  store i8 0, ptr %15, align 1, !tbaa !74
  tail call void @_ZN11OpenImageIO6v3_1_011ImageOutput13ioproxy_clearEv(ptr noundef nonnull align 8 dereferenceable(296) %0)
  ret i1 true
}